target datalayout = "e-m:e-p270:32:32-p271:32:32-p272:64:64-i64:64-i128:128-f80:128-n8:16:32:64-S128"
target triple = "x86_64-pc-linux-gnu"

%struct._lv_global_t = type { i8, i8, %struct.lv_ll_t, ptr, ptr, %struct.lv_ll_t, i8, i32, i32, ptr, %struct.lv_ll_t, ptr, %struct.lv_ll_t, ptr, ptr, i32, ptr, i8, i32, i32, ptr, i32, %struct.lv_timer_state_t, %struct.lv_anim_state_t, %struct.lv_tick_state_t, %struct._lv_draw_buf_handlers_t, %struct._lv_draw_buf_handlers_t, %struct._lv_draw_buf_handlers_t, %struct.lv_ll_t, ptr, ptr, %struct.lv_draw_global_info_t, [4 x %struct.lv_draw_sw_mask_radius_circle_dsc_t], ptr, ptr, ptr, %struct.lv_tlsf_state_t, %struct.lv_ll_t, ptr, ptr, %struct.lv_style_t, i64, ptr, i32, ptr }
%struct.lv_timer_state_t = type { %struct.lv_ll_t, i8, i8, i8, i8, i32, i8, i32, i32, i32, i32, ptr, ptr }
%struct.lv_anim_state_t = type { i8, i8, ptr, %struct.lv_ll_t }
%struct.lv_tick_state_t = type { i32, i8, ptr, ptr }
%struct._lv_draw_buf_handlers_t = type { ptr, ptr, ptr, ptr, ptr, ptr }
%struct.lv_draw_global_info_t = type { ptr, i32, i32, i32, i32, i8 }
%struct.lv_draw_sw_mask_radius_circle_dsc_t = type { ptr, ptr, ptr, ptr, i32, i32, i32 }
%struct.lv_tlsf_state_t = type { ptr, i64, i64, %struct.lv_ll_t }
%struct.lv_ll_t = type { i32, ptr, ptr }
%struct.lv_style_t = type { ptr, i32, i8 }
%struct._lv_obj_t = type { ptr, ptr, ptr, ptr, ptr, %struct.lv_area_t, i32, i16, i16 }
%struct.lv_area_t = type { i32, i32, i32, i32 }
%struct._lv_display_t = type { i32, i32, i32, i32, i32, i32, i32, ptr, ptr, ptr, ptr, ptr, i32, i32, i8, i32, i16, i32, [32 x %struct.lv_area_t], [32 x i8], i32, i32, %struct.lv_ll_t, %struct._lv_draw_buf_t, %struct._lv_draw_buf_t, ptr, ptr, ptr, ptr, ptr, ptr, ptr, ptr, ptr, ptr, i32, i8, ptr, ptr, %struct.lv_event_list_t, i8, ptr, ptr, i32, %struct.lv_area_t }
%struct._lv_draw_buf_t = type { %struct.lv_image_header_t, i32, ptr, ptr, ptr }
%struct.lv_image_header_t = type <{ i64, i32 }>
%struct.lv_event_list_t = type { %struct._lv_array_t, i8 }
%struct._lv_array_t = type { ptr, i32, i32, i32, i8 }

@lv_global = external global %struct._lv_global_t, align 8

; Function Attrs: nounwind uwtable
define ptr @lv_obj_get_parent(ptr noundef %0) #0 {
  %2 = alloca ptr, align 8
  %3 = alloca ptr, align 8
  store ptr %0, ptr %3, align 8, !tbaa !3
  %4 = load ptr, ptr %3, align 8, !tbaa !3
  %5 = icmp eq ptr %4, null
  br i1 %5, label %6, label %7

6:                                                ; preds = %1
  store ptr null, ptr %2, align 8
  br label %20

7:                                                ; preds = %1
  br label %8

8:                                                ; preds = %7
  %9 = load ptr, ptr %3, align 8, !tbaa !3
  %10 = icmp ne ptr %9, null
  br i1 %10, label %15, label %11

11:                                               ; preds = %8
  br label %12

12:                                               ; preds = %11
  br label %13

13:                                               ; preds = %12
  br label %14

14:                                               ; preds = %13, %14
  br label %14

15:                                               ; preds = %8
  br label %16

16:                                               ; preds = %15
  %17 = load ptr, ptr %3, align 8, !tbaa !3
  %18 = getelementptr inbounds nuw %struct._lv_obj_t, ptr %17, i32 0, i32 1
  %19 = load ptr, ptr %18, align 8, !tbaa !30
  store ptr %19, ptr %2, align 8
  br label %20

20:                                               ; preds = %16, %6
  %21 = load ptr, ptr %2, align 8
  ret ptr %21
}

; Function Attrs: nounwind uwtable
define ptr @lv_obj_get_screen(ptr noundef %0) #0 {
  %2 = alloca ptr, align 8
  %3 = alloca ptr, align 8
  %4 = alloca ptr, align 8
  store ptr %0, ptr %2, align 8, !tbaa !3
  br label %5

5:                                                ; preds = %1
  %6 = load ptr, ptr %2, align 8, !tbaa !3
  %7 = icmp ne ptr %6, null
  br i1 %7, label %12, label %8

8:                                                ; preds = %5
  br label %9

9:                                                ; preds = %8
  br label %10

10:                                               ; preds = %9
  br label %11

11:                                               ; preds = %10, %11
  br label %11

12:                                               ; preds = %5
  br label %13

13:                                               ; preds = %12
  call void @llvm.lifetime.start.p0(i64 8, ptr %3) #3
  %14 = load ptr, ptr %2, align 8, !tbaa !3
  store ptr %14, ptr %3, align 8, !tbaa !3
  call void @llvm.lifetime.start.p0(i64 8, ptr %4) #3
  br label %15

15:                                               ; preds = %19, %13
  %16 = load ptr, ptr %3, align 8, !tbaa !3
  store ptr %16, ptr %4, align 8, !tbaa !3
  %17 = load ptr, ptr %4, align 8, !tbaa !3
  %18 = call ptr @lv_obj_get_parent(ptr noundef %17)
  store ptr %18, ptr %3, align 8, !tbaa !3
  br label %19

19:                                               ; preds = %15
  %20 = load ptr, ptr %3, align 8, !tbaa !3
  %21 = icmp ne ptr %20, null
  br i1 %21, label %15, label %22, !llvm.loop !81

22:                                               ; preds = %19
  %23 = load ptr, ptr %4, align 8, !tbaa !3
  call void @llvm.lifetime.end.p0(i64 8, ptr %4) #3
  call void @llvm.lifetime.end.p0(i64 8, ptr %3) #3
  ret ptr %23
}

; Function Attrs: nounwind uwtable
define ptr @lv_obj_get_display(ptr noundef %0) #0 {
  %2 = alloca ptr, align 8
  %3 = alloca ptr, align 8
  %4 = alloca ptr, align 8
  %5 = alloca ptr, align 8
  %6 = alloca ptr, align 8
  %7 = alloca i32, align 4
  %8 = alloca i32, align 4
  store ptr %0, ptr %3, align 8, !tbaa !3
  br label %9

9:                                                ; preds = %1
  %10 = load ptr, ptr %3, align 8, !tbaa !3
  %11 = icmp ne ptr %10, null
  br i1 %11, label %16, label %12

12:                                               ; preds = %9
  br label %13

13:                                               ; preds = %12
  br label %14

14:                                               ; preds = %13
  br label %15

15:                                               ; preds = %14, %15
  br label %15

16:                                               ; preds = %9
  br label %17

17:                                               ; preds = %16
  call void @llvm.lifetime.start.p0(i64 8, ptr %4) #3
  %18 = load ptr, ptr %3, align 8, !tbaa !3
  %19 = getelementptr inbounds nuw %struct._lv_obj_t, ptr %18, i32 0, i32 1
  %20 = load ptr, ptr %19, align 8, !tbaa !30
  %21 = icmp eq ptr %20, null
  br i1 %21, label %22, label %24

22:                                               ; preds = %17
  %23 = load ptr, ptr %3, align 8, !tbaa !3
  store ptr %23, ptr %4, align 8, !tbaa !3
  br label %27

24:                                               ; preds = %17
  %25 = load ptr, ptr %3, align 8, !tbaa !3
  %26 = call ptr @lv_obj_get_screen(ptr noundef %25)
  store ptr %26, ptr %4, align 8, !tbaa !3
  br label %27

27:                                               ; preds = %24, %22
  call void @llvm.lifetime.start.p0(i64 8, ptr %5) #3
  call void @llvm.lifetime.start.p0(i64 8, ptr %6) #3
  store ptr getelementptr inbounds nuw (%struct._lv_global_t, ptr @lv_global, i32 0, i32 2), ptr %6, align 8, !tbaa !36
  %28 = load ptr, ptr %6, align 8, !tbaa !36
  %29 = call ptr @lv_ll_get_head(ptr noundef %28)
  store ptr %29, ptr %5, align 8, !tbaa !8
  br label %30

30:                                               ; preds = %60, %27
  %31 = load ptr, ptr %5, align 8, !tbaa !8
  %32 = icmp ne ptr %31, null
  br i1 %32, label %33, label %64

33:                                               ; preds = %30
  call void @llvm.lifetime.start.p0(i64 4, ptr %7) #3
  store i32 0, ptr %7, align 4, !tbaa !37
  br label %34

34:                                               ; preds = %53, %33
  %35 = load i32, ptr %7, align 4, !tbaa !37
  %36 = load ptr, ptr %5, align 8, !tbaa !8
  %37 = getelementptr inbounds nuw %struct._lv_display_t, ptr %36, i32 0, i32 35
  %38 = load i32, ptr %37, align 8, !tbaa !38
  %39 = icmp ult i32 %35, %38
  br i1 %39, label %40, label %56

40:                                               ; preds = %34
  %41 = load ptr, ptr %5, align 8, !tbaa !8
  %42 = getelementptr inbounds nuw %struct._lv_display_t, ptr %41, i32 0, i32 28
  %43 = load ptr, ptr %42, align 8, !tbaa !39
  %44 = load i32, ptr %7, align 4, !tbaa !37
  %45 = zext i32 %44 to i64
  %46 = getelementptr inbounds nuw ptr, ptr %43, i64 %45
  %47 = load ptr, ptr %46, align 8, !tbaa !3
  %48 = load ptr, ptr %4, align 8, !tbaa !3
  %49 = icmp eq ptr %47, %48
  br i1 %49, label %50, label %52

50:                                               ; preds = %40
  %51 = load ptr, ptr %5, align 8, !tbaa !8
  store ptr %51, ptr %2, align 8
  store i32 1, ptr %8, align 4
  br label %57

52:                                               ; preds = %40
  br label %53

53:                                               ; preds = %52
  %54 = load i32, ptr %7, align 4, !tbaa !37
  %55 = add i32 %54, 1
  store i32 %55, ptr %7, align 4, !tbaa !37
  br label %34, !llvm.loop !40

56:                                               ; preds = %34
  store i32 0, ptr %8, align 4
  br label %57

57:                                               ; preds = %56, %50
  call void @llvm.lifetime.end.p0(i64 4, ptr %7) #3
  %58 = load i32, ptr %8, align 4
  switch i32 %58, label %68 [
    i32 0, label %59
  ]

59:                                               ; preds = %57
  br label %60

60:                                               ; preds = %59
  %61 = load ptr, ptr %6, align 8, !tbaa !36
  %62 = load ptr, ptr %5, align 8, !tbaa !8
  %63 = call ptr @lv_ll_get_next(ptr noundef %61, ptr noundef %62)
  store ptr %63, ptr %5, align 8, !tbaa !8
  br label %30, !llvm.loop !42

64:                                               ; preds = %30
  br label %65

65:                                               ; preds = %64
  br label %66

66:                                               ; preds = %65
  br label %67

67:                                               ; preds = %66
  store ptr null, ptr %2, align 8
  store i32 1, ptr %8, align 4
  br label %68

68:                                               ; preds = %67, %57
  call void @llvm.lifetime.end.p0(i64 8, ptr %6) #3
  call void @llvm.lifetime.end.p0(i64 8, ptr %5) #3
  call void @llvm.lifetime.end.p0(i64 8, ptr %4) #3
  %69 = load ptr, ptr %2, align 8
  ret ptr %69
}