; Function Attrs: nounwind uwtable
define ptr @lv_obj_get_display(ptr noundef readonly captures(address) %0) local_unnamed_addr #0 {
  %.not = icmp eq ptr %0, null
  br i1 %.not, label %.preheader, label %2

.preheader:                                       ; preds = %1, %.preheader
  br label %.preheader

2:                                                ; preds = %1
  %3 = getelementptr inbounds nuw i8, ptr %0, i64 8
  %4 = load ptr, ptr %3, align 8, !tbaa !3
  %5 = icmp eq ptr %4, null
  br i1 %5, label %lv_obj_get_screen.exit, label %.preheader8.i

.preheader8.i:                                    ; preds = %2, %.preheader8.i
  %.0.i = phi ptr [ %7, %.preheader8.i ], [ %0, %2 ]
  %6 = getelementptr inbounds nuw i8, ptr %.0.i, i64 8
  %7 = load ptr, ptr %6, align 8, !tbaa !3
  %.not7.i = icmp eq ptr %7, null
  br i1 %.not7.i, label %lv_obj_get_screen.exit, label %.preheader8.i, !llvm.loop !36

lv_obj_get_screen.exit:                           ; preds = %.preheader8.i, %2
  %.019 = phi ptr [ %0, %2 ], [ %.0.i, %.preheader8.i ]
  %8 = tail call ptr @lv_ll_get_head(ptr noundef nonnull getelementptr inbounds nuw (i8, ptr @lv_global, i64 8)) #6
  %.not2130 = icmp eq ptr %8, null
  br i1 %.not2130, label %.thread, label %.preheader24

.preheader24:                                     ; preds = %lv_obj_get_screen.exit, %._crit_edge
  %.01831 = phi ptr [ %18, %._crit_edge ], [ %8, %lv_obj_get_screen.exit ]
  %9 = getelementptr inbounds nuw i8, ptr %.01831, i64 832
  %10 = load i32, ptr %9, align 8, !tbaa !15
  %.not2228.not = icmp eq i32 %10, 0
  br i1 %.not2228.not, label %._crit_edge, label %.lr.ph

.lr.ph:                                           ; preds = %.preheader24
  %11 = getelementptr inbounds nuw i8, ptr %.01831, i64 776
  %12 = load ptr, ptr %11, align 8, !tbaa !30
  %wide.trip.count = zext i32 %10 to i64
  br label %14

13:                                               ; preds = %14
  %indvars.iv.next = add nuw nsw i64 %indvars.iv, 1
  %exitcond.not = icmp eq i64 %indvars.iv.next, %wide.trip.count
  br i1 %exitcond.not, label %._crit_edge, label %14, !llvm.loop !31

14:                                               ; preds = %.lr.ph, %13
  %indvars.iv = phi i64 [ 0, %.lr.ph ], [ %indvars.iv.next, %13 ]
  %15 = getelementptr inbounds nuw ptr, ptr %12, i64 %indvars.iv
  %16 = load ptr, ptr %15, align 8, !tbaa !33
  %17 = icmp eq ptr %16, %.019
  br i1 %17, label %.thread, label %13

._crit_edge:                                      ; preds = %13, %.preheader24
  %18 = tail call ptr @lv_ll_get_next(ptr noundef nonnull getelementptr inbounds nuw (i8, ptr @lv_global, i64 8), ptr noundef nonnull %.01831) #6
  %.not21 = icmp eq ptr %18, null
  br i1 %.not21, label %.thread, label %.preheader24, !llvm.loop !34

.thread:                                          ; preds = %._crit_edge, %14, %lv_obj_get_screen.exit
  %.01827 = phi ptr [ null, %lv_obj_get_screen.exit ], [ %.01831, %14 ], [ null, %._crit_edge ]
  ret ptr %.01827
}